target datalayout = "e-m:e-p270:32:32-p271:32:32-p272:64:64-i64:64-i128:128-f80:128-n8:16:32:64-S128"
target triple = "x86_64-unknown-linux-gnu"

%"class.llvh::detail::IEEEFloat" = type <{ ptr, %"union.llvh::detail::IEEEFloat::Significand", i16, i8, [5 x i8] }>
%"union.llvh::detail::IEEEFloat::Significand" = type { i64 }

; Function Attrs: mustprogress nounwind uwtable
define linkonce_odr hidden noundef zeroext i1 @_ZNK4llvh6detail9IEEEFloat10isInfinityEv(ptr noundef nonnull align 8 dereferenceable(24) %this) #1 comdat align 2 {
entry:
  %this.addr = alloca ptr, align 8
  store ptr %this, ptr %this.addr, align 8
  %this1 = load ptr, ptr %this.addr, align 8
  %category = getelementptr inbounds %"class.llvh::detail::IEEEFloat", ptr %this1, i32 0, i32 3
  %bf.load = load i8, ptr %category, align 2
  %bf.clear = and i8 %bf.load, 7
  %bf.cast = zext i8 %bf.clear to i32
  %cmp = icmp eq i32 %bf.cast, 0
  ret i1 %cmp
}

; Function Attrs: mustprogress nounwind uwtable
define linkonce_odr hidden noundef zeroext i1 @_ZNK4llvh6detail9IEEEFloat5isNaNEv(ptr noundef nonnull align 8 dereferenceable(24) %this) #1 comdat align 2 {
entry:
  %this.addr = alloca ptr, align 8
  store ptr %this, ptr %this.addr, align 8
  %this1 = load ptr, ptr %this.addr, align 8
  %category = getelementptr inbounds %"class.llvh::detail::IEEEFloat", ptr %this1, i32 0, i32 3
  %bf.load = load i8, ptr %category, align 2
  %bf.clear = and i8 %bf.load, 7
  %bf.cast = zext i8 %bf.clear to i32
  %cmp = icmp eq i32 %bf.cast, 1
  ret i1 %cmp
}

; Function Attrs: mustprogress nounwind uwtable
define linkonce_odr hidden noundef zeroext i1 @_ZNK4llvh6detail9IEEEFloat6isZeroEv(ptr noundef nonnull align 8 dereferenceable(24) %this) #1 comdat align 2 {
entry:
  %this.addr = alloca ptr, align 8
  store ptr %this, ptr %this.addr, align 8
  %this1 = load ptr, ptr %this.addr, align 8
  %category = getelementptr inbounds %"class.llvh::detail::IEEEFloat", ptr %this1, i32 0, i32 3
  %bf.load = load i8, ptr %category, align 2
  %bf.clear = and i8 %bf.load, 7
  %bf.cast = zext i8 %bf.clear to i32
  %cmp = icmp eq i32 %bf.cast, 3
  ret i1 %cmp
}

; Function Attrs: mustprogress nounwind uwtable
define linkonce_odr hidden noundef zeroext i1 @_ZNK4llvh6detail9IEEEFloat8isFiniteEv(ptr noundef nonnull align 8 dereferenceable(24) %this) #1 comdat align 2 {
entry:
  %this.addr = alloca ptr, align 8
  store ptr %this, ptr %this.addr, align 8
  %this1 = load ptr, ptr %this.addr, align 8
  %call = call noundef zeroext i1 @_ZNK4llvh6detail9IEEEFloat5isNaNEv(ptr noundef nonnull align 8 dereferenceable(24) %this1)
  br i1 %call, label %land.end, label %land.rhs

land.rhs:                                         ; preds = %entry
  %call2 = call noundef zeroext i1 @_ZNK4llvh6detail9IEEEFloat10isInfinityEv(ptr noundef nonnull align 8 dereferenceable(24) %this1)
  %lnot = xor i1 %call2, true
  br label %land.end

land.end:                                         ; preds = %land.rhs, %entry
  %0 = phi i1 [ false, %entry ], [ %lnot, %land.rhs ]
  ret i1 %0
}

; Function Attrs: mustprogress nounwind uwtable
define linkonce_odr hidden noundef zeroext i1 @_ZNK4llvh6detail9IEEEFloat15isFiniteNonZeroEv(ptr noundef nonnull align 8 dereferenceable(24) %this) #1 comdat align 2 {
entry:
  %this.addr = alloca ptr, align 8
  store ptr %this, ptr %this.addr, align 8
  %this1 = load ptr, ptr %this.addr, align 8
  %call = call noundef zeroext i1 @_ZNK4llvh6detail9IEEEFloat8isFiniteEv(ptr noundef nonnull align 8 dereferenceable(24) %this1)
  br i1 %call, label %land.rhs, label %land.end

land.rhs:                                         ; preds = %entry
  %call2 = call noundef zeroext i1 @_ZNK4llvh6detail9IEEEFloat6isZeroEv(ptr noundef nonnull align 8 dereferenceable(24) %this1)
  %lnot = xor i1 %call2, true
  br label %land.end

land.end:                                         ; preds = %land.rhs, %entry
  %0 = phi i1 [ false, %entry ], [ %lnot, %land.rhs ]
  ret i1 %0
}

; Function Attrs: mustprogress nounwind uwtable
define hidden noundef i32 @_ZN4llvh6detail9IEEEFloat8multiplyERKS1_NS_11APFloatBase12roundingModeE(ptr noundef nonnull align 8 dereferenceable(24) %this, ptr noundef nonnull align 8 dereferenceable(24) %rhs, i32 noundef %rounding_mode) #1 align 2 {
entry:
  %this.addr = alloca ptr, align 8
  %rhs.addr = alloca ptr, align 8
  %rounding_mode.addr = alloca i32, align 4
  %fs = alloca i32, align 4
  %lost_fraction = alloca i32, align 4
  store ptr %this, ptr %this.addr, align 8
  store ptr %rhs, ptr %rhs.addr, align 8
  store i32 %rounding_mode, ptr %rounding_mode.addr, align 4
  %this1 = load ptr, ptr %this.addr, align 8
  %0 = load ptr, ptr %rhs.addr, align 8
  %sign = getelementptr inbounds %"class.llvh::detail::IEEEFloat", ptr %0, i32 0, i32 3
  %bf.load = load i8, ptr %sign, align 2
  %bf.lshr = lshr i8 %bf.load, 3
  %bf.clear = and i8 %bf.lshr, 1
  %bf.cast = zext i8 %bf.clear to i32
  %sign2 = getelementptr inbounds %"class.llvh::detail::IEEEFloat", ptr %this1, i32 0, i32 3
  %bf.load3 = load i8, ptr %sign2, align 2
  %bf.lshr4 = lshr i8 %bf.load3, 3
  %bf.clear5 = and i8 %bf.lshr4, 1
  %bf.cast6 = zext i8 %bf.clear5 to i32
  %xor = xor i32 %bf.cast6, %bf.cast
  %1 = trunc i32 %xor to i8
  %bf.load7 = load i8, ptr %sign2, align 2
  %bf.value = and i8 %1, 1
  %bf.shl = shl i8 %bf.value, 3
  %bf.clear8 = and i8 %bf.load7, -9
  %bf.set = or i8 %bf.clear8, %bf.shl
  store i8 %bf.set, ptr %sign2, align 2
  %2 = load ptr, ptr %rhs.addr, align 8
  %call = call noundef i32 @_ZN4llvh6detail9IEEEFloat16multiplySpecialsERKS1_(ptr noundef nonnull align 8 dereferenceable(24) %this1, ptr noundef nonnull align 8 dereferenceable(24) %2)
  store i32 %call, ptr %fs, align 4
  %call9 = call noundef zeroext i1 @_ZNK4llvh6detail9IEEEFloat15isFiniteNonZeroEv(ptr noundef nonnull align 8 dereferenceable(24) %this1)
  br i1 %call9, label %if.then, label %if.end13

if.then:                                          ; preds = %entry
  %3 = load ptr, ptr %rhs.addr, align 8
  %call10 = call noundef i32 @_ZN4llvh6detail9IEEEFloat19multiplySignificandERKS1_PS2_(ptr noundef nonnull align 8 dereferenceable(24) %this1, ptr noundef nonnull align 8 dereferenceable(24) %3, ptr noundef null)
  store i32 %call10, ptr %lost_fraction, align 4
  %4 = load i32, ptr %rounding_mode.addr, align 4
  %5 = load i32, ptr %lost_fraction, align 4
  %call11 = call noundef i32 @_ZN4llvh6detail9IEEEFloat9normalizeENS_11APFloatBase12roundingModeENS_12lostFractionE(ptr noundef nonnull align 8 dereferenceable(24) %this1, i32 noundef %4, i32 noundef %5)
  store i32 %call11, ptr %fs, align 4
  %6 = load i32, ptr %lost_fraction, align 4
  %cmp = icmp ne i32 %6, 0
  br i1 %cmp, label %if.then12, label %if.end

if.then12:                                        ; preds = %if.then
  %7 = load i32, ptr %fs, align 4
  %or = or i32 %7, 16
  store i32 %or, ptr %fs, align 4
  br label %if.end

if.end:                                           ; preds = %if.then12, %if.then
  br label %if.end13

if.end13:                                         ; preds = %if.end, %entry
  %8 = load i32, ptr %fs, align 4
  ret i32 %8
}