; Function Attrs: mustprogress nounwind uwtable
define hidden noundef range(i32 0, 32) i32 @_ZN4llvh6detail9IEEEFloat8multiplyERKS1_NS_11APFloatBase12roundingModeE(ptr noundef nonnull align 8 dereferenceable(24) %this, ptr noundef nonnull align 8 dereferenceable(24) %rhs, i32 noundef %rounding_mode) local_unnamed_addr #2 align 2 {
entry:
  %sign = getelementptr inbounds nuw i8, ptr %rhs, i64 18
  %bf.load = load i8, ptr %sign, align 2
  %sign2 = getelementptr inbounds nuw i8, ptr %this, i64 18
  %bf.load3 = load i8, ptr %sign2, align 2
  %0 = and i8 %bf.load, 8
  %bf.set = xor i8 %0, %bf.load3
  store i8 %bf.set, ptr %sign2, align 2
  %call = tail call noundef i32 @_ZN4llvh6detail9IEEEFloat16multiplySpecialsERKS1_(ptr noundef nonnull align 8 dereferenceable(24) %this, ptr noundef nonnull align 8 dereferenceable(24) %rhs)
  %bf.load.i.i.i = load i8, ptr %sign2, align 2
  %bf.clear.i.i.i = and i8 %bf.load.i.i.i, 6
  %1 = icmp ne i8 %bf.clear.i.i.i, 0
  %bf.clear.i.i = and i8 %bf.load.i.i.i, 7
  %cmp.i.i = icmp ne i8 %bf.clear.i.i, 3
  %2 = and i1 %1, %cmp.i.i
  br i1 %2, label %if.then, label %if.end13

if.then:                                          ; preds = %entry
  %call10 = tail call noundef i32 @_ZN4llvh6detail9IEEEFloat19multiplySignificandERKS1_PS2_(ptr noundef nonnull align 8 dereferenceable(24) %this, ptr noundef nonnull align 8 dereferenceable(24) %rhs, ptr noundef null)
  %call11 = tail call noundef i32 @_ZN4llvh6detail9IEEEFloat9normalizeENS_11APFloatBase12roundingModeENS_12lostFractionE(ptr noundef nonnull align 8 dereferenceable(24) %this, i32 noundef %rounding_mode, i32 noundef %call10)
  %cmp.not = icmp eq i32 %call10, 0
  %or = or i32 %call11, 16
  %spec.select = select i1 %cmp.not, i32 %call11, i32 %or
  br label %if.end13

if.end13:                                         ; preds = %if.then, %entry
  %fs.0 = phi i32 [ %call, %entry ], [ %spec.select, %if.then ]
  ret i32 %fs.0
}